; Function Attrs: mustprogress nofree norecurse nosync nounwind willreturn memory(read, inaccessiblemem: none) uwtable
define noundef zeroext i1 @_ZTv0_n64_NK5arrow2io20TransformInputStream6closedEv(ptr nocapture noundef readonly %this) unnamed_addr #7 align 2 {
entry:
  %0 = load ptr, ptr %this, align 8
  %1 = getelementptr inbounds i8, ptr %0, i64 -64
  %2 = load i64, ptr %1, align 8
  %3 = getelementptr inbounds i8, ptr %this, i64 %2
  %impl_.i = getelementptr inbounds i8, ptr %3, i64 8
  %4 = load ptr, ptr %impl_.i, align 8
  %closed_.i = getelementptr inbounds i8, ptr %4, i64 72
  %5 = load i8, ptr %closed_.i, align 8
  %6 = and i8 %5, 1
  %tobool.i = icmp ne i8 %6, 0
  ret i1 %tobool.i
}